target datalayout = "e-m:e-p270:32:32-p271:32:32-p272:64:64-i64:64-i128:128-f80:128-n8:16:32:64-S128"
target triple = "x86_64-pc-linux-gnu"

@poisoned_type_info = external global ptr, align 8

; Function Attrs: nounwind uwtable
define dso_local ptr @parse_type(ptr noundef %0) #0 {
  %2 = alloca ptr, align 8
  %3 = alloca ptr, align 8
  %4 = alloca ptr, align 8
  %5 = alloca ptr, align 8
  %6 = alloca ptr, align 8
  store ptr %0, ptr %4, align 8
  %7 = load ptr, ptr %4, align 8
  %8 = call ptr @parse_base_type(ptr noundef %7)
  store ptr %8, ptr %5, align 8
  %9 = load ptr, ptr %5, align 8
  store ptr %9, ptr %2, align 8
  %10 = load ptr, ptr %2, align 8
  %11 = icmp ne ptr %10, null
  br i1 %11, label %12, label %19

12:                                               ; preds = %1
  %13 = load ptr, ptr %2, align 8
  %14 = load i16, ptr %13, align 8
  %15 = lshr i16 %14, 3
  %16 = and i16 %15, 63
  %17 = zext i16 %16 to i32
  %18 = icmp ne i32 %17, 0
  br label %19

19:                                               ; preds = %12, %1
  %20 = phi i1 [ true, %1 ], [ %18, %12 ]
  br i1 %20, label %23, label %21

21:                                               ; preds = %19
  %22 = load ptr, ptr @poisoned_type_info, align 8
  store ptr %22, ptr %3, align 8
  br label %28

23:                                               ; preds = %19
  %24 = load ptr, ptr %5, align 8
  store ptr %24, ptr %6, align 8
  %25 = load ptr, ptr %4, align 8
  %26 = load ptr, ptr %6, align 8
  %27 = call ptr @parse_type_with_base(ptr noundef %25, ptr noundef %26)
  store ptr %27, ptr %3, align 8
  br label %28

28:                                               ; preds = %23, %21
  %29 = load ptr, ptr %3, align 8
  ret ptr %29
}