; Function Attrs: nounwind uwtable
define dso_local ptr @parse_type(ptr noundef %0) local_unnamed_addr #0 {
  %2 = tail call fastcc ptr @parse_base_type(ptr noundef %0)
  %.not = icmp eq ptr %2, null
  br i1 %.not, label %.split8, label %4

.split8:                                          ; preds = %1
  %3 = tail call ptr @parse_type_with_base(ptr noundef %0, ptr noundef null)
  br label %.critedge

4:                                                ; preds = %1
  %5 = load i16, ptr %2, align 8
  %6 = and i16 %5, 504
  %.not10 = icmp eq i16 %6, 0
  br i1 %.not10, label %8, label %.split

.split:                                           ; preds = %4
  %7 = tail call ptr @parse_type_with_base(ptr noundef %0, ptr noundef nonnull %2)
  br label %.critedge

8:                                                ; preds = %4
  %9 = load ptr, ptr @poisoned_type_info, align 8
  br label %.critedge

.critedge:                                        ; preds = %.split, %.split8, %8
  %.0 = phi ptr [ %9, %8 ], [ %7, %.split ], [ %3, %.split8 ]
  ret ptr %.0
}